; Function Attrs: mustprogress uwtable
define internal fastcc noundef zeroext i1 @_ZN9grpc_core12_GLOBAL__N_147XdsAggregateClusterBackwardCompatibilityEnabledEv() unnamed_addr #3 personality ptr @__gxx_personality_v0 {
  %1 = alloca %"class.std::optional.476", align 8
  %2 = alloca i8, align 1
  call void @llvm.lifetime.start.p0(i64 40, ptr nonnull %1) #39
  call void @_ZN9grpc_core6GetEnvB5cxx11EPKc(ptr dead_on_unwind nonnull writable sret(%"class.std::optional.476") align 8 %1, ptr noundef nonnull @.str.42)
  %3 = getelementptr inbounds nuw i8, ptr %1, i64 32
  %4 = load i8, ptr %3, align 8, !tbaa !245, !range !121, !noundef !122
  %5 = trunc nuw i8 %4 to i1
  br i1 %5, label %6, label %_ZNSt14_Optional_baseINSt7__cxx1112basic_stringIcSt11char_traitsIcESaIcEEELb0ELb0EED2Ev.exit5

6:                                                ; preds = %0
  call void @llvm.lifetime.start.p0(i64 1, ptr nonnull %2) #39
  %7 = load ptr, ptr %1, align 8, !tbaa !43
  %8 = invoke noundef zeroext i1 @_Z20gpr_parse_bool_valuePKcPb(ptr noundef %7, ptr noundef nonnull %2)
          to label %22 unwind label %9

9:                                                ; preds = %6
  %10 = landingpad { ptr, i32 }
          cleanup
  call void @llvm.lifetime.end.p0(i64 1, ptr nonnull %2) #39
  %11 = load i8, ptr %3, align 8, !tbaa !245, !range !121, !noundef !122
  %12 = trunc nuw i8 %11 to i1
  br i1 %12, label %13, label %_ZNSt14_Optional_baseINSt7__cxx1112basic_stringIcSt11char_traitsIcESaIcEEELb0ELb0EED2Ev.exit

13:                                               ; preds = %9
  store i8 0, ptr %3, align 8, !tbaa !245
  %14 = load ptr, ptr %1, align 8, !tbaa !43
  %15 = getelementptr inbounds nuw i8, ptr %1, i64 16
  %16 = icmp eq ptr %14, %15
  br i1 %16, label %_ZNKSt7__cxx1112basic_stringIcSt11char_traitsIcESaIcEE11_M_is_localEv.exit.thread.i.i.i.i.i.i, label %_ZNKSt7__cxx1112basic_stringIcSt11char_traitsIcESaIcEE11_M_is_localEv.exit.i.i.i.i.i.i

_ZNKSt7__cxx1112basic_stringIcSt11char_traitsIcESaIcEE11_M_is_localEv.exit.thread.i.i.i.i.i.i: ; preds = %13
  %17 = getelementptr inbounds nuw i8, ptr %1, i64 8
  %18 = load i64, ptr %17, align 8, !tbaa !36
  %19 = icmp ult i64 %18, 16
  call void @llvm.assume(i1 %19)
  br label %_ZNSt14_Optional_baseINSt7__cxx1112basic_stringIcSt11char_traitsIcESaIcEEELb0ELb0EED2Ev.exit

_ZNKSt7__cxx1112basic_stringIcSt11char_traitsIcESaIcEE11_M_is_localEv.exit.i.i.i.i.i.i: ; preds = %13
  %20 = load i64, ptr %15, align 8, !tbaa !24
  %21 = add i64 %20, 1
  call void @_ZdlPvm(ptr noundef %14, i64 noundef %21) #41
  br label %_ZNSt14_Optional_baseINSt7__cxx1112basic_stringIcSt11char_traitsIcESaIcEEELb0ELb0EED2Ev.exit

_ZNSt14_Optional_baseINSt7__cxx1112basic_stringIcSt11char_traitsIcESaIcEEELb0ELb0EED2Ev.exit: ; preds = %9, %_ZNKSt7__cxx1112basic_stringIcSt11char_traitsIcESaIcEE11_M_is_localEv.exit.thread.i.i.i.i.i.i, %_ZNKSt7__cxx1112basic_stringIcSt11char_traitsIcESaIcEE11_M_is_localEv.exit.i.i.i.i.i.i
  call void @llvm.lifetime.end.p0(i64 40, ptr nonnull %1) #39
  resume { ptr, i32 } %10

22:                                               ; preds = %6
  %23 = load i8, ptr %2, align 1, !range !121
  %24 = trunc nuw i8 %23 to i1
  %25 = select i1 %8, i1 %24, i1 false
  call void @llvm.lifetime.end.p0(i64 1, ptr nonnull %2) #39
  %.pre = load i8, ptr %3, align 8, !tbaa !245, !range !121
  %26 = trunc nuw i8 %.pre to i1
  br i1 %26, label %27, label %_ZNSt14_Optional_baseINSt7__cxx1112basic_stringIcSt11char_traitsIcESaIcEEELb0ELb0EED2Ev.exit5

27:                                               ; preds = %22
  store i8 0, ptr %3, align 8, !tbaa !245
  %28 = load ptr, ptr %1, align 8, !tbaa !43
  %29 = getelementptr inbounds nuw i8, ptr %1, i64 16
  %30 = icmp eq ptr %28, %29
  br i1 %30, label %_ZNKSt7__cxx1112basic_stringIcSt11char_traitsIcESaIcEE11_M_is_localEv.exit.thread.i.i.i.i.i.i4, label %_ZNKSt7__cxx1112basic_stringIcSt11char_traitsIcESaIcEE11_M_is_localEv.exit.i.i.i.i.i.i3

_ZNKSt7__cxx1112basic_stringIcSt11char_traitsIcESaIcEE11_M_is_localEv.exit.thread.i.i.i.i.i.i4: ; preds = %27
  %31 = getelementptr inbounds nuw i8, ptr %1, i64 8
  %32 = load i64, ptr %31, align 8, !tbaa !36
  %33 = icmp ult i64 %32, 16
  call void @llvm.assume(i1 %33)
  br label %_ZNSt14_Optional_baseINSt7__cxx1112basic_stringIcSt11char_traitsIcESaIcEEELb0ELb0EED2Ev.exit5

_ZNKSt7__cxx1112basic_stringIcSt11char_traitsIcESaIcEE11_M_is_localEv.exit.i.i.i.i.i.i3: ; preds = %27
  %34 = load i64, ptr %29, align 8, !tbaa !24
  %35 = add i64 %34, 1
  call void @_ZdlPvm(ptr noundef %28, i64 noundef %35) #41
  br label %_ZNSt14_Optional_baseINSt7__cxx1112basic_stringIcSt11char_traitsIcESaIcEEELb0ELb0EED2Ev.exit5

_ZNSt14_Optional_baseINSt7__cxx1112basic_stringIcSt11char_traitsIcESaIcEEELb0ELb0EED2Ev.exit5: ; preds = %0, %22, %_ZNKSt7__cxx1112basic_stringIcSt11char_traitsIcESaIcEE11_M_is_localEv.exit.thread.i.i.i.i.i.i4, %_ZNKSt7__cxx1112basic_stringIcSt11char_traitsIcESaIcEE11_M_is_localEv.exit.i.i.i.i.i.i3
  %.07 = phi i1 [ %25, %22 ], [ %25, %_ZNKSt7__cxx1112basic_stringIcSt11char_traitsIcESaIcEE11_M_is_localEv.exit.thread.i.i.i.i.i.i4 ], [ %25, %_ZNKSt7__cxx1112basic_stringIcSt11char_traitsIcESaIcEE11_M_is_localEv.exit.i.i.i.i.i.i3 ], [ false, %0 ]
  call void @llvm.lifetime.end.p0(i64 40, ptr nonnull %1) #39
  ret i1 %.07
}